Certificate:
    Data:
        Version: 3 (0x2)
        Serial Number: 1 (0x1)
        Signature Algorithm: sha1WithRSAEncryption
        Issuer: C=AU, ST=Some-State, O=Internet Widgits Pty Ltd, CN=1111
        Validity
            Not Before: Nov 20 19:47:46 2015 GMT
            Not After : Nov 19 19:47:46 2016 GMT
        Subject: C=AU, ST=Some-State, O=Internet Widgits Pty Ltd, CN=1111
        Subject Public Key Info:
            Public Key Algorithm: rsaEncryption
            RSA Public Key: (1024 bit)
                Modulus (1024 bit):
                    00:ba:bb:bf:82:22:8f:44:bd:fc:2a:c5:10:26:47:
                    e2:6d:b2:b6:7c:51:c6:78:f5:0b:4a:cd:19:ed:e1:
                    12:25:84:eb:48:a4:87:a4:67:41:7c:30:cd:3f:59:
                    8f:0b:5a:90:22:2b:19:3b:78:b1:e0:d6:27:21:0a:
                    97:b2:0d:d4:a3:ae:f0:72:ab:4f:7e:af:27:df:14:
                    88:bb:d1:8a:91:7e:ff:91:c6:77:cb:b3:a0:17:dd:
                    f2:0f:55:68:fe:03:f3:98:58:12:a1:a8:10:3e:a5:
                    1b:a8:48:df:03:85:a7:2d:a9:59:4a:41:81:52:d9:
                    c3:92:18:bc:06:b9:55:5f:ed
                Exponent: 65537 (0x10001)
        X509v3 extensions:
            X509v3 Basic Constraints: 
                CA:FALSE
            Netscape Comment: 
                OpenSSL Generated Certificate
            X509v3 Subject Key Identifier: 
                21:7D:B7:06:E8:B1:A3:79:C1:F4:A2:AE:3F:73:16:B2:BB:90:53:B5
            X509v3 Authority Key Identifier: 
                keyid:6D:1C:07:C5:2F:AA:13:AF:13:98:79:32:7A:25:86:D9:60:8B:A4:87

    Signature Algorithm: sha1WithRSAEncryption
        b2:7c:d1:a8:95:6a:c7:8f:1e:9d:51:59:f3:5a:cc:d8:83:14:
        98:53:8b:b4:57:49:87:29:18:be:e0:91:d0:0f:92:36:ef:77:
        cd:32:71:d9:58:88:ce:15:cb:b0:68:1d:04:5b:2b:45:a1:b9:
        cc:23:35:6b:67:1e:74:95:8c:db:ff:a0:b7:ff:21:23:76:6e:
        51:a5:ef:b9:07:bc:18:d0:00:db:4d:df:46:12:d3:ec:ad:29:
        2d:ba:35:ab:f4:be:b5:41:c7:b3:db:af:c2:5f:de:f3:52:ed:
        c9:db:82:0f:c8:c5:83:4c:23:d4:07:4b:2f:1f:c0:f0:b6:87:
        7d:84
-----BEGIN CERTIFICATE-----
MIICmTCCAgKgAwIBAgIBATANBgkqhkiG9w0BAQUFADBUMQswCQYDVQQGEwJBVTET
MBEGA1UECBMKU29tZS1TdGF0ZTEhMB8GA1UEChMYSW50ZXJuZXQgV2lkZ2l0cyBQ
dHkgTHRkMQ0wCwYDVQQDEwQxMTExMB4XDTE1MTEyMDE5NDc0NloXDTE2MTExOTE5
NDc0NlowVDELMAkGA1UEBhMCQVUxEzARBgNVBAgTClNvbWUtU3RhdGUxITAfBgNV
BAoTGEludGVybmV0IFdpZGdpdHMgUHR5IEx0ZDENMAsGA1UEAxMEMTExMTCBnzAN
BgkqhkiG9w0BAQEFAAOBjQAwgYkCgYEAuru/giKPRL38KsUQJkfibbK2fFHGePUL
Ss0Z7eESJYTrSKSHpGdBfDDNP1mPC1qQIisZO3ix4NYnIQqXsg3Uo67wcqtPfq8n
3xSIu9GKkX7/kcZ3y7OgF93yD1Vo/gPzmFgSoagQPqUbqEjfA4WnLalZSkGBUtnD
khi8BrlVX+0CAwEAAaN7MHkwCQYDVR0TBAIwADAsBglghkgBhvhCAQ0EHxYdT3Bl
blNTTCBHZW5lcmF0ZWQgQ2VydGlmaWNhdGUwHQYDVR0OBBYEFCF9twbosaN5wfSi
rj9zFrK7kFO1MB8GA1UdIwQYMBaAFG0cB8UvqhOvE5h5Mnolhtlgi6SHMA0GCSqG
SIb3DQEBBQUAA4GBALJ80aiVasePHp1RWfNazNiDFJhTi7RXSYcpGL7gkdAPkjbv
d80ycdlYiM4Vy7BoHQRbK0WhucwjNWtnHnSVjNv/oLf/ISN2blGl77kHvBjQANtN
30YS0+ytKS26Nav0vrVBx7Pbr8Jf3vNS7cnbgg/IxYNMI9QHSy8fwPC2h32E
-----END CERTIFICATE-----
