Certificate:
    Data:
        Version: 3 (0x2)
        Serial Number: 1 (0x1)
        Signature Algorithm: sha1WithRSAEncryption
        Issuer: C=AU, ST=Some-State, O=Internet Widgits Pty Ltd, CN=1111
        Validity
            Not Before: Nov 20 19:44:05 2015 GMT
            Not After : Nov 19 19:44:05 2016 GMT
        Subject: C=AU, ST=Some-State, O=Internet Widgits Pty Ltd, CN=1111
        Subject Public Key Info:
            Public Key Algorithm: rsaEncryption
            RSA Public Key: (1024 bit)
                Modulus (1024 bit):
                    00:c5:b5:4f:83:aa:e5:30:f6:f4:9b:29:f2:af:ab:
                    0a:b7:5d:6f:48:92:00:0e:51:3c:0b:2a:a6:77:ed:
                    22:b8:3e:80:85:8a:66:33:c8:db:58:4a:67:69:5f:
                    43:80:1b:c3:e3:e8:3c:e5:f9:07:0e:08:16:11:9c:
                    42:33:92:cb:bd:41:39:c4:a2:86:67:76:d0:5a:48:
                    5c:2e:df:4e:45:59:cc:e0:03:1f:82:bd:84:5f:d2:
                    e4:20:f2:b7:5e:c2:36:33:b4:e1:16:55:3d:ea:be:
                    ec:4d:c5:a1:6b:48:10:4a:b4:f1:eb:de:b3:4d:55:
                    bc:0d:07:7a:41:b8:2b:02:b1
                Exponent: 65537 (0x10001)
        X509v3 extensions:
            X509v3 Basic Constraints: 
                CA:FALSE
            Netscape Comment: 
                OpenSSL Generated Certificate
            X509v3 Subject Key Identifier: 
                62:BE:C8:7B:97:82:D6:B3:5A:CE:D3:A1:6C:22:D1:2B:59:C6:9B:CD
            X509v3 Authority Key Identifier: 
                keyid:2D:DE:FE:15:EE:F7:71:42:E3:C2:CF:0C:26:30:33:13:49:EA:F9:A5

    Signature Algorithm: sha1WithRSAEncryption
        89:3d:93:c2:3f:8f:a7:e7:36:a7:7b:7a:94:2f:27:7b:e5:e9:
        5b:42:a1:a5:c6:56:d5:eb:91:7b:9d:54:1c:be:dc:61:a2:cb:
        d9:6f:b5:d4:d7:11:5b:8e:61:2b:93:3e:59:16:5a:77:70:eb:
        ff:de:c0:c8:fa:6d:07:9a:de:04:c1:33:ab:3c:d3:f1:7c:87:
        b7:46:dd:2d:c1:ef:92:83:57:6a:fe:df:7d:12:e5:21:e7:98:
        df:eb:32:ed:fb:bf:e3:ec:52:66:09:a2:f0:9d:aa:bc:70:62:
        3d:d1:d4:d9:9a:29:c2:63:c6:f1:d0:be:72:8d:fc:61:ef:22:
        c1:ee
-----BEGIN CERTIFICATE-----
MIICmTCCAgKgAwIBAgIBATANBgkqhkiG9w0BAQUFADBUMQswCQYDVQQGEwJBVTET
MBEGA1UECBMKU29tZS1TdGF0ZTEhMB8GA1UEChMYSW50ZXJuZXQgV2lkZ2l0cyBQ
dHkgTHRkMQ0wCwYDVQQDEwQxMTExMB4XDTE1MTEyMDE5NDQwNVoXDTE2MTExOTE5
NDQwNVowVDELMAkGA1UEBhMCQVUxEzARBgNVBAgTClNvbWUtU3RhdGUxITAfBgNV
BAoTGEludGVybmV0IFdpZGdpdHMgUHR5IEx0ZDENMAsGA1UEAxMEMTExMTCBnzAN
BgkqhkiG9w0BAQEFAAOBjQAwgYkCgYEAxbVPg6rlMPb0mynyr6sKt11vSJIADlE8
Cyqmd+0iuD6AhYpmM8jbWEpnaV9DgBvD4+g85fkHDggWEZxCM5LLvUE5xKKGZ3bQ
WkhcLt9ORVnM4AMfgr2EX9LkIPK3XsI2M7ThFlU96r7sTcWha0gQSrTx696zTVW8
DQd6QbgrArECAwEAAaN7MHkwCQYDVR0TBAIwADAsBglghkgBhvhCAQ0EHxYdT3Bl
blNTTCBHZW5lcmF0ZWQgQ2VydGlmaWNhdGUwHQYDVR0OBBYEFGK+yHuXgtazWs7T
oWwi0StZxpvNMB8GA1UdIwQYMBaAFC3e/hXu93FC48LPDCYwMxNJ6vmlMA0GCSqG
SIb3DQEBBQUAA4GBAIk9k8I/j6fnNqd7epQvJ3vl6VtCoaXGVtXrkXudVBy+3GGi
y9lvtdTXEVuOYSuTPlkWWndw6//ewMj6bQea3gTBM6s80/F8h7dG3S3B75KDV2r+
330S5SHnmN/rMu37v+PsUmYJovCdqrxwYj3R1NmaKcJjxvHQvnKN/GHvIsHu
-----END CERTIFICATE-----
