Certificate:
    Data:
        Version: 3 (0x2)
        Serial Number: 1 (0x1)
        Signature Algorithm: sha1WithRSAEncryption
        Issuer: C=AU, ST=Some-State, O=Internet Widgits Pty Ltd, CN=1111
        Validity
            Not Before: Nov 16 20:50:35 2015 GMT
            Not After : Nov 15 20:50:35 2016 GMT
        Subject: C=AU, ST=Some-State, O=Internet Widgits Pty Ltd, CN=1111
        Subject Public Key Info:
            Public Key Algorithm: rsaEncryption
            RSA Public Key: (1024 bit)
                Modulus (1024 bit):
                    00:b6:4b:9a:76:68:2b:ca:35:5f:e3:0e:24:c5:72:
                    f8:0d:b5:1e:3b:be:4a:dd:49:6f:1b:4b:d7:a5:14:
                    40:64:62:d3:2f:dd:f0:33:a5:10:88:b9:67:98:02:
                    5b:c9:43:ad:e1:c5:77:17:4a:e6:12:c9:b1:f9:5d:
                    18:c5:79:7f:2a:3c:98:95:e1:1b:6c:c1:b1:1c:7e:
                    c7:19:cc:29:04:63:f8:89:8c:35:87:43:86:9c:37:
                    42:9d:95:8b:db:55:99:e5:e2:54:44:23:e9:b3:d3:
                    72:05:55:90:de:68:6c:ef:b7:e5:17:ac:6a:4f:70:
                    b3:58:61:b6:67:3e:1b:35:3b
                Exponent: 65537 (0x10001)
        X509v3 extensions:
            X509v3 Basic Constraints: 
                CA:FALSE
            Netscape Comment: 
                OpenSSL Generated Certificate
            X509v3 Subject Key Identifier: 
                51:B5:56:7D:A6:8E:7F:61:12:32:D7:BE:4F:C9:6D:CE:F1:AE:98:D0
            X509v3 Authority Key Identifier: 
                keyid:DD:BE:04:A1:CE:39:10:84:D3:FE:E3:01:D4:41:B8:F2:A2:15:BE:7F

    Signature Algorithm: sha1WithRSAEncryption
        20:03:d8:ad:72:a2:68:c0:34:b1:3f:7c:58:bf:65:c2:59:81:
        cf:42:3d:7e:c3:82:7c:65:f7:03:25:14:58:4f:35:01:97:dc:
        d2:c7:39:68:e2:82:69:cb:f7:25:3b:e9:63:81:7b:89:5b:e5:
        fc:00:4d:e3:d2:9d:7b:17:d4:c7:f2:25:57:74:b1:61:ef:c4:
        cd:8d:31:ec:75:c7:6f:c5:53:99:8f:86:fa:a8:81:85:bc:a2:
        6e:fc:98:92:b6:d5:a3:17:bd:63:57:28:c2:18:3a:a6:71:fe:
        3b:31:4b:27:20:18:ec:b1:e0:e3:30:4a:80:66:ca:94:b4:a4:
        d8:27
-----BEGIN CERTIFICATE-----
MIICmTCCAgKgAwIBAgIBATANBgkqhkiG9w0BAQUFADBUMQswCQYDVQQGEwJBVTET
MBEGA1UECBMKU29tZS1TdGF0ZTEhMB8GA1UEChMYSW50ZXJuZXQgV2lkZ2l0cyBQ
dHkgTHRkMQ0wCwYDVQQDEwQxMTExMB4XDTE1MTExNjIwNTAzNVoXDTE2MTExNTIw
NTAzNVowVDELMAkGA1UEBhMCQVUxEzARBgNVBAgTClNvbWUtU3RhdGUxITAfBgNV
BAoTGEludGVybmV0IFdpZGdpdHMgUHR5IEx0ZDENMAsGA1UEAxMEMTExMTCBnzAN
BgkqhkiG9w0BAQEFAAOBjQAwgYkCgYEAtkuadmgryjVf4w4kxXL4DbUeO75K3Ulv
G0vXpRRAZGLTL93wM6UQiLlnmAJbyUOt4cV3F0rmEsmx+V0YxXl/KjyYleEbbMGx
HH7HGcwpBGP4iYw1h0OGnDdCnZWL21WZ5eJURCPps9NyBVWQ3mhs77flF6xqT3Cz
WGG2Zz4bNTsCAwEAAaN7MHkwCQYDVR0TBAIwADAsBglghkgBhvhCAQ0EHxYdT3Bl
blNTTCBHZW5lcmF0ZWQgQ2VydGlmaWNhdGUwHQYDVR0OBBYEFFG1Vn2mjn9hEjLX
vk/Jbc7xrpjQMB8GA1UdIwQYMBaAFN2+BKHOORCE0/7jAdRBuPKiFb5/MA0GCSqG
SIb3DQEBBQUAA4GBACAD2K1yomjANLE/fFi/ZcJZgc9CPX7Dgnxl9wMlFFhPNQGX
3NLHOWjigmnL9yU76WOBe4lb5fwATePSnXsX1MfyJVd0sWHvxM2NMex1x2/FU5mP
hvqogYW8om78mJK21aMXvWNXKMIYOqZx/jsxSycgGOyx4OMwSoBmypS0pNgn
-----END CERTIFICATE-----
