Certificate:
    Data:
        Version: 3 (0x2)
        Serial Number: 1 (0x1)
        Signature Algorithm: sha1WithRSAEncryption
        Issuer: C=AU, ST=Some-State, O=Internet Widgits Pty Ltd, CN=1111
        Validity
            Not Before: Nov 16 20:50:38 2015 GMT
            Not After : Nov 15 20:50:38 2016 GMT
        Subject: C=AU, ST=Some-State, O=Internet Widgits Pty Ltd, CN=1111
        Subject Public Key Info:
            Public Key Algorithm: rsaEncryption
            RSA Public Key: (1024 bit)
                Modulus (1024 bit):
                    00:c1:ed:63:01:27:ae:05:c5:29:36:68:be:44:f4:
                    11:a5:95:76:fa:46:3d:b6:49:43:f4:25:c2:6c:14:
                    d4:9d:03:77:28:4e:54:9a:3e:5f:9b:4a:78:7a:46:
                    d0:e3:2d:9f:2f:ad:2d:60:e2:fc:ad:d9:7d:98:4e:
                    66:ba:31:15:57:06:36:65:85:88:17:82:02:6e:f2:
                    ef:14:a1:32:de:a4:ec:ef:c6:00:72:07:95:df:e8:
                    1a:60:5c:46:66:50:f8:e8:62:88:98:9c:10:7b:f9:
                    5e:b2:df:a5:e3:4b:5d:49:88:51:93:46:61:00:fb:
                    b7:9a:3e:dd:ed:5b:8f:ab:03
                Exponent: 65537 (0x10001)
        X509v3 extensions:
            X509v3 Basic Constraints: 
                CA:FALSE
            Netscape Comment: 
                OpenSSL Generated Certificate
            X509v3 Subject Key Identifier: 
                EE:1A:EF:B1:E8:41:5F:61:0D:61:95:71:0F:B5:DC:C7:51:E1:AC:1A
            X509v3 Authority Key Identifier: 
                keyid:DD:BE:04:A1:CE:39:10:84:D3:FE:E3:01:D4:41:B8:F2:A2:15:BE:7F

    Signature Algorithm: sha1WithRSAEncryption
        4a:71:3e:92:5f:bb:f8:cb:33:a2:c8:0c:00:5c:33:11:8b:4d:
        b0:5f:7d:7b:ba:f1:65:a6:f0:87:b0:a9:59:55:a7:64:9d:31:
        e0:16:42:c0:cf:f3:2e:be:e5:aa:71:2f:3f:e3:8c:6c:33:95:
        b2:7b:d9:f1:3d:47:2d:79:e3:31:cb:71:c0:e8:3e:81:38:76:
        d2:7b:0e:78:89:01:11:38:25:11:26:52:6e:81:ce:72:d3:81:
        e8:eb:82:e4:b4:9e:b0:18:ed:44:24:e3:81:86:e4:16:eb:de:
        f0:25:a1:b4:ac:22:a3:f2:db:e1:f6:16:7f:92:a0:f5:50:17:
        35:4c
-----BEGIN CERTIFICATE-----
MIICmTCCAgKgAwIBAgIBATANBgkqhkiG9w0BAQUFADBUMQswCQYDVQQGEwJBVTET
MBEGA1UECBMKU29tZS1TdGF0ZTEhMB8GA1UEChMYSW50ZXJuZXQgV2lkZ2l0cyBQ
dHkgTHRkMQ0wCwYDVQQDEwQxMTExMB4XDTE1MTExNjIwNTAzOFoXDTE2MTExNTIw
NTAzOFowVDELMAkGA1UEBhMCQVUxEzARBgNVBAgTClNvbWUtU3RhdGUxITAfBgNV
BAoTGEludGVybmV0IFdpZGdpdHMgUHR5IEx0ZDENMAsGA1UEAxMEMTExMTCBnzAN
BgkqhkiG9w0BAQEFAAOBjQAwgYkCgYEAwe1jASeuBcUpNmi+RPQRpZV2+kY9tklD
9CXCbBTUnQN3KE5Umj5fm0p4ekbQ4y2fL60tYOL8rdl9mE5mujEVVwY2ZYWIF4IC
bvLvFKEy3qTs78YAcgeV3+gaYFxGZlD46GKImJwQe/lest+l40tdSYhRk0ZhAPu3
mj7d7VuPqwMCAwEAAaN7MHkwCQYDVR0TBAIwADAsBglghkgBhvhCAQ0EHxYdT3Bl
blNTTCBHZW5lcmF0ZWQgQ2VydGlmaWNhdGUwHQYDVR0OBBYEFO4a77HoQV9hDWGV
cQ+13MdR4awaMB8GA1UdIwQYMBaAFN2+BKHOORCE0/7jAdRBuPKiFb5/MA0GCSqG
SIb3DQEBBQUAA4GBAEpxPpJfu/jLM6LIDABcMxGLTbBffXu68WWm8IewqVlVp2Sd
MeAWQsDP8y6+5apxLz/jjGwzlbJ72fE9Ry154zHLccDoPoE4dtJ7DniJARE4JREm
Um6BznLTgejrguS0nrAY7UQk44GG5Bbr3vAlobSsIqPy2+H2Fn+SoPVQFzVM
-----END CERTIFICATE-----
