Certificate:
    Data:
        Version: 3 (0x2)
        Serial Number: 1 (0x1)
        Signature Algorithm: sha1WithRSAEncryption
        Issuer: C=AU, ST=Some-State, O=Internet Widgits Pty Ltd, CN=1111
        Validity
            Not Before: Nov 20 19:44:08 2015 GMT
            Not After : Nov 19 19:44:08 2016 GMT
        Subject: C=AU, ST=Some-State, O=Internet Widgits Pty Ltd, CN=1111
        Subject Public Key Info:
            Public Key Algorithm: rsaEncryption
            RSA Public Key: (1024 bit)
                Modulus (1024 bit):
                    00:d0:35:5b:1d:b4:8a:cf:02:ba:07:86:9d:f4:67:
                    7d:fe:b3:b6:ff:79:9f:a7:c5:3f:a2:87:43:76:dc:
                    e5:6a:f7:a8:c6:ec:d4:ce:1d:04:3a:83:8d:20:4a:
                    64:59:7d:fe:4f:66:38:5e:ac:9d:d9:2f:1b:51:92:
                    e5:65:7e:b6:5b:0e:2c:51:d1:b5:a4:f8:a6:05:14:
                    9d:af:f2:1e:e9:cd:8b:6e:aa:22:15:90:ab:d8:f7:
                    79:d5:c7:68:fb:12:4f:02:58:ac:e8:4a:b5:1c:52:
                    8d:1b:8c:e5:2f:74:56:cc:d6:67:7b:c3:29:ad:1b:
                    d8:f8:bd:e0:6f:dd:aa:08:c9
                Exponent: 65537 (0x10001)
        X509v3 extensions:
            X509v3 Basic Constraints: 
                CA:FALSE
            Netscape Comment: 
                OpenSSL Generated Certificate
            X509v3 Subject Key Identifier: 
                B6:60:99:C0:40:6B:46:C5:74:23:E0:7E:EE:B6:D2:25:6D:67:BC:D5
            X509v3 Authority Key Identifier: 
                keyid:2D:DE:FE:15:EE:F7:71:42:E3:C2:CF:0C:26:30:33:13:49:EA:F9:A5

    Signature Algorithm: sha1WithRSAEncryption
        65:b9:5e:d7:1f:5b:90:84:d5:82:e0:b6:05:07:e0:7d:47:9e:
        20:16:d3:5c:d4:cf:80:f7:e0:eb:78:02:59:5c:97:d5:ed:44:
        7e:95:da:6d:77:fe:78:2e:93:41:0b:c2:35:a2:8c:47:71:a0:
        79:50:4b:45:20:8f:73:f1:3f:9c:39:9c:b1:6e:76:74:41:b6:
        ce:d6:2b:e7:db:27:94:dd:86:be:5b:00:a4:0b:fb:d6:f9:95:
        d3:cb:41:bf:8c:96:6e:a7:98:57:aa:34:34:14:38:aa:04:d7:
        c1:20:02:fe:19:cb:3d:89:a9:69:75:c9:34:5b:32:e5:25:19:
        f0:31
-----BEGIN CERTIFICATE-----
MIICmTCCAgKgAwIBAgIBATANBgkqhkiG9w0BAQUFADBUMQswCQYDVQQGEwJBVTET
MBEGA1UECBMKU29tZS1TdGF0ZTEhMB8GA1UEChMYSW50ZXJuZXQgV2lkZ2l0cyBQ
dHkgTHRkMQ0wCwYDVQQDEwQxMTExMB4XDTE1MTEyMDE5NDQwOFoXDTE2MTExOTE5
NDQwOFowVDELMAkGA1UEBhMCQVUxEzARBgNVBAgTClNvbWUtU3RhdGUxITAfBgNV
BAoTGEludGVybmV0IFdpZGdpdHMgUHR5IEx0ZDENMAsGA1UEAxMEMTExMTCBnzAN
BgkqhkiG9w0BAQEFAAOBjQAwgYkCgYEA0DVbHbSKzwK6B4ad9Gd9/rO2/3mfp8U/
oodDdtzlaveoxuzUzh0EOoONIEpkWX3+T2Y4Xqyd2S8bUZLlZX62Ww4sUdG1pPim
BRSdr/Ie6c2LbqoiFZCr2Pd51cdo+xJPAlis6Eq1HFKNG4zlL3RWzNZne8MprRvY
+L3gb92qCMkCAwEAAaN7MHkwCQYDVR0TBAIwADAsBglghkgBhvhCAQ0EHxYdT3Bl
blNTTCBHZW5lcmF0ZWQgQ2VydGlmaWNhdGUwHQYDVR0OBBYEFLZgmcBAa0bFdCPg
fu620iVtZ7zVMB8GA1UdIwQYMBaAFC3e/hXu93FC48LPDCYwMxNJ6vmlMA0GCSqG
SIb3DQEBBQUAA4GBAGW5XtcfW5CE1YLgtgUH4H1HniAW01zUz4D34Ot4Allcl9Xt
RH6V2m13/nguk0ELwjWijEdxoHlQS0Ugj3PxP5w5nLFudnRBts7WK+fbJ5Tdhr5b
AKQL+9b5ldPLQb+Mlm6nmFeqNDQUOKoE18EgAv4Zyz2JqWl1yTRbMuUlGfAx
-----END CERTIFICATE-----
